#include <math.h>
#include <stdio.h>
#include <stdlib.h>
#include <string.h>

main()
{
int n;int m=0;int i=0;int j;int p=0;int t=0;
int num[8000]={0};
scanf("%d",&n);
if(n<5)
printf("empty");
else
{
for(m=2;m<=n;m++)
      {
          for(p=2;p<m;p++)
             {
               if(m%p==0)
               break;           
             }
          if(p==m)
          {   num[i]=m;
               i++; 
               t=i;     
          }            
  }
  
    for(i=0;i<=t;i++)
    {
    if((num[i+1]-num[i])==2)
    printf("%d %d\n",num[i],num[i+1]);           
    }
}
    getchar();
    getchar();
}


